c__builtin__
set
p0
((lp1
(I1
I1
I1
I0
I0
tp2
a(I1
I0
I0
I0
I0
tp3
a(I1
I1
I0
I1
I1
tp4
a(I1
I0
I1
I1
I0
tp5
a(I0
I0
I0
I0
I1
tp6
a(I1
I0
I1
I0
I0
tp7
a(I0
I0
I1
I1
I1
tp8
a(I1
I1
I1
I1
I0
tp9
a(I0
I1
I0
I1
I1
tp10
a(I1
I0
I0
I1
I0
tp11
a(I0
I0
I1
I0
I1
tp12
a(I0
I1
I1
I1
I0
tp13
a(I0
I0
I1
I0
I0
tp14
a(I1
I1
I1
I0
I1
tp15
a(I0
I1
I0
I0
I0
tp16
a(I1
I0
I1
I1
I1
tp17
a(I1
I1
I0
I1
I0
tp18
a(I1
I1
I0
I0
I0
tp19
a(I1
I0
I1
I0
I1
tp20
a(I0
I1
I1
I0
I0
tp21
a(I0
I0
I0
I1
I0
tp22
a(I1
I0
I0
I0
I1
tp23
a(I0
I0
I1
I1
I0
tp24
a(I0
I0
I0
I1
I1
tp25
a(I1
I0
I0
I1
I1
tp26
a(I0
I1
I0
I0
I1
tp27
a(I0
I1
I1
I0
I1
tp28
a(I0
I1
I0
I1
I0
tp29
a(I1
I1
I0
I0
I1
tp30
a(I0
I1
I1
I1
I1
tp31
atp32
Rp33
.