c__builtin__
set
p0
((lp1
(I1
I0
I1
I1
tp2
a(I1
I1
I0
I1
tp3
a(I1
I0
I0
I0
tp4
a(I1
I0
I1
I0
tp5
a(I0
I0
I0
I1
tp6
a(I0
I0
I1
I1
tp7
a(I1
I0
I0
I1
tp8
a(I0
I1
I0
I0
tp9
a(I0
I1
I1
I0
tp10
a(I0
I0
I1
I0
tp11
a(I0
I1
I0
I1
tp12
a(I1
I1
I1
I0
tp13
a(I0
I1
I1
I1
tp14
a(I1
I1
I0
I0
tp15
atp16
Rp17
.