c__builtin__
set
p0
((lp1
(I0
I1
I1
I1
I1
I1
I1
I1
tp2
a(I1
I1
I1
I1
I0
I1
I1
I1
tp3
a(I1
I0
I1
I1
I1
I1
I1
I1
tp4
a(I1
I1
I1
I1
I1
I1
I1
I0
tp5
a(I1
I1
I1
I1
I1
I1
I0
I1
tp6
a(I1
I1
I1
I0
I1
I1
I1
I1
tp7
a(I1
I1
I1
I1
I1
I0
I1
I1
tp8
a(I1
I1
I0
I1
I1
I1
I1
I1
tp9
atp10
Rp11
.