c__builtin__
set
p0
((lp1
(F0.0
F0.33333333333333331
F1.0
tp2
a(F0.0
F1.0
F1.0
tp3
a(F1.0
F0.0
F0.0
tp4
a(F1.0
F0.0
F0.5
tp5
a(F0.0
F0.5
F1.0
tp6
a(F0.0
F0.66666666666666663
F1.0
tp7
a(F0.5
F0.0
F1.0
tp8
a(F0.0
F1.0
F0.66666666666666663
tp9
a(F1.0
F0.0
F1.0
tp10
a(F0.33333333333333331
F0.0
F1.0
tp11
a(F0.0
F1.0
F0.0
tp12
a(F1.0
F0.0
F0.66666666666666663
tp13
a(F0.5
F1.0
F0.0
tp14
a(F0.66666666666666663
F1.0
F0.0
tp15
a(F1.0
F1.0
F0.0
tp16
a(F1.0
F0.0
F0.33333333333333331
tp17
a(F0.0
F0.0
F1.0
tp18
a(F0.33333333333333331
F1.0
F0.0
tp19
a(F0.0
F1.0
F0.33333333333333331
tp20
a(F1.0
F0.66666666666666663
F0.0
tp21
a(F1.0
F0.5
F0.0
tp22
a(F0.66666666666666663
F0.0
F1.0
tp23
a(F0.0
F1.0
F0.5
tp24
a(F1.0
F0.33333333333333331
F0.0
tp25
atp26
Rp27
.