c__builtin__
set
p0
((lp1
(F0.0
F1.0
F1.0
tp2
a(F0.0
F0.20000000000000001
F1.0
tp3
a(F1.0
F0.0
F0.0
tp4
a(F1.0
F0.59999999999999998
F0.0
tp5
a(F0.20000000000000001
F0.0
F1.0
tp6
a(F1.0
F0.0
F1.0
tp7
a(F0.80000000000000004
F1.0
F0.0
tp8
a(F0.0
F0.80000000000000004
F1.0
tp9
a(F1.0
F0.0
F0.40000000000000002
tp10
a(F0.0
F1.0
F0.80000000000000004
tp11
a(F0.0
F1.0
F0.59999999999999998
tp12
a(F0.20000000000000001
F1.0
F0.0
tp13
a(F1.0
F0.40000000000000002
F0.0
tp14
a(F0.40000000000000002
F0.0
F1.0
tp15
a(F1.0
F0.0
F0.59999999999999998
tp16
a(F1.0
F0.0
F0.20000000000000001
tp17
a(F0.59999999999999998
F0.0
F1.0
tp18
a(F0.0
F1.0
F0.40000000000000002
tp19
a(F1.0
F0.80000000000000004
F0.0
tp20
a(F0.0
F0.0
F1.0
tp21
a(F1.0
F0.20000000000000001
F0.0
tp22
a(F0.40000000000000002
F1.0
F0.0
tp23
a(F1.0
F0.0
F0.80000000000000004
tp24
a(F1.0
F1.0
F0.0
tp25
a(F0.59999999999999998
F1.0
F0.0
tp26
a(F0.0
F0.40000000000000002
F1.0
tp27
a(F0.0
F0.59999999999999998
F1.0
tp28
a(F0.0
F1.0
F0.0
tp29
a(F0.0
F1.0
F0.20000000000000001
tp30
a(F0.80000000000000004
F0.0
F1.0
tp31
atp32
Rp33
.