c__builtin__
set
p0
((lp1
(I0
I1
I1
tp2
a(I1
I1
I0
tp3
a(I1
I0
I0
tp4
a(I0
F0.5
I1
tp5
a(F0.80000000000000004
I0
I1
tp6
a(I0
I0
I1
tp7
a(I0
I1
F0.66666666666666663
tp8
a(I1
I0
I1
tp9
a(I1
F0.5
I0
tp10
a(F0.20000000000000001
I1
I0
tp11
a(I0
I1
I0
tp12
a(I1
I0
F0.33333333333333331
tp13
atp14
Rp15
.