c__builtin__
set
p0
((lp1
(F0.0
F1.0
F1.0
tp2
a(F1.0
F0.0
F0.25
tp3
a(F1.0
F0.0
F1.0
tp4
a(F1.0
F0.75
F0.0
tp5
a(F1.0
F0.0
F0.75
tp6
a(F1.0
F0.0
F0.5
tp7
a(F0.0
F1.0
F0.0
tp8
a(F1.0
F0.5
F0.0
tp9
a(F0.0
F0.25
F1.0
tp10
a(F1.0
F0.0
F0.0
tp11
a(F0.0
F0.5
F1.0
tp12
a(F0.0
F0.75
F1.0
tp13
a(F0.0
F1.0
F0.25
tp14
a(F0.75
F1.0
F0.0
tp15
a(F0.0
F1.0
F0.75
tp16
a(F0.5
F1.0
F0.0
tp17
a(F0.75
F0.0
F1.0
tp18
a(F1.0
F1.0
F0.0
tp19
a(F0.0
F0.0
F1.0
tp20
a(F0.5
F0.0
F1.0
tp21
a(F0.0
F1.0
F0.5
tp22
a(F1.0
F0.25
F0.0
tp23
a(F0.25
F1.0
F0.0
tp24
a(F0.25
F0.0
F1.0
tp25
atp26
Rp27
.