c__builtin__
set
p0
((lp1
(F0.5
F0.5
F0.0
F1.0
tp2
a(F1.0
F0.5
F0.5
F0.0
tp3
a(F0.0
F0.0
F1.0
F1.0
tp4
a(F1.0
F0.0
F0.5
F1.0
tp5
a(F0.5
F0.0
F1.0
F0.0
tp6
a(F0.0
F0.5
F1.0
F1.0
tp7
a(F1.0
F0.5
F0.0
F0.0
tp8
a(F1.0
F0.0
F0.0
F0.0
tp9
a(F1.0
F0.0
F1.0
F1.0
tp10
a(F1.0
F0.0
F0.5
F0.0
tp11
a(F0.0
F0.0
F1.0
F0.0
tp12
a(F0.0
F1.0
F1.0
F1.0
tp13
a(F1.0
F0.5
F1.0
F0.0
tp14
a(F0.0
F0.5
F0.0
F1.0
tp15
a(F0.5
F0.5
F1.0
F0.0
tp16
a(F0.0
F0.0
F0.5
F1.0
tp17
a(F1.0
F1.0
F0.0
F1.0
tp18
a(F0.0
F0.0
F0.0
F1.0
tp19
a(F0.5
F1.0
F0.0
F0.0
tp20
a(F0.5
F1.0
F1.0
F0.0
tp21
a(F1.0
F0.0
F1.0
F0.0
tp22
a(F0.0
F0.5
F0.5
F1.0
tp23
a(F0.0
F1.0
F0.5
F1.0
tp24
a(F0.0
F0.5
F1.0
F0.0
tp25
a(F0.0
F1.0
F0.0
F0.0
tp26
a(F0.0
F1.0
F0.5
F0.5
tp27
a(F1.0
F1.0
F0.5
F0.0
tp28
a(F0.5
F0.0
F1.0
F0.5
tp29
a(F0.0
F1.0
F1.0
F0.5
tp30
a(F0.0
F1.0
F0.5
F0.0
tp31
a(F0.0
F0.0
F1.0
F0.5
tp32
a(F1.0
F0.0
F0.5
F0.5
tp33
a(F0.5
F0.0
F1.0
F1.0
tp34
a(F1.0
F1.0
F0.0
F0.5
tp35
a(F0.0
F1.0
F0.0
F0.5
tp36
a(F0.5
F0.0
F0.5
F1.0
tp37
a(F0.5
F1.0
F0.0
F1.0
tp38
a(F1.0
F1.0
F1.0
F0.0
tp39
a(F1.0
F0.0
F1.0
F0.5
tp40
a(F0.5
F1.0
F0.5
F0.0
tp41
a(F1.0
F1.0
F0.0
F0.0
tp42
a(F0.5
F0.0
F0.0
F1.0
tp43
a(F1.0
F0.0
F0.0
F1.0
tp44
a(F0.0
F0.5
F1.0
F0.5
tp45
a(F0.0
F1.0
F1.0
F0.0
tp46
a(F1.0
F0.5
F0.0
F1.0
tp47
a(F0.0
F1.0
F0.0
F1.0
tp48
a(F1.0
F0.0
F0.0
F0.5
tp49
a(F0.5
F1.0
F0.0
F0.5
tp50
a(F1.0
F0.5
F0.0
F0.5
tp51
atp52
Rp53
.