c__builtin__
set
p0
((lp1
(I0
I1
I0
I0
I0
I0
I0
I0
I0
I0
tp2
a(I1
I1
I1
I1
I1
I1
I1
I1
I0
I1
tp3
a(I1
I0
I1
I1
I1
I1
I1
I1
I1
I1
tp4
a(I1
I1
I1
I1
I1
I1
I1
I1
I1
I0
tp5
a(I1
I1
I1
I1
I0
I1
I1
I1
I1
I1
tp6
a(I0
I0
I0
I0
I0
I0
I1
I0
I0
I0
tp7
a(I0
I0
I0
I0
I0
I1
I0
I0
I0
I0
tp8
a(I0
I1
I1
I1
I1
I1
I1
I1
I1
I1
tp9
a(I1
I1
I1
I1
I1
I1
I0
I1
I1
I1
tp10
a(I0
I0
I0
I1
I0
I0
I0
I0
I0
I0
tp11
a(I1
I1
I1
I1
I1
I1
I1
I0
I1
I1
tp12
a(I0
I0
I1
I0
I0
I0
I0
I0
I0
I0
tp13
a(I1
I1
I1
I1
I1
I0
I1
I1
I1
I1
tp14
a(I0
I0
I0
I0
I1
I0
I0
I0
I0
I0
tp15
a(I0
I0
I0
I0
I0
I0
I0
I0
I0
I1
tp16
a(I0
I0
I0
I0
I0
I0
I0
I1
I0
I0
tp17
a(I1
I0
I0
I0
I0
I0
I0
I0
I0
I0
tp18
a(I1
I1
I0
I1
I1
I1
I1
I1
I1
I1
tp19
a(I0
I0
I0
I0
I0
I0
I0
I0
I1
I0
tp20
a(I1
I1
I1
I0
I1
I1
I1
I1
I1
I1
tp21
atp22
Rp23
.