c__builtin__
set
p0
((lp1
(I0
I1
I1
I1
I1
I1
I1
I1
tp2
a(I1
I1
I1
I1
I1
I1
I0
I1
tp3
a(I0
I0
I0
I0
I1
I0
I0
I0
tp4
a(I1
I0
I1
I1
I1
I1
I1
I1
tp5
a(I0
I0
I1
I0
I0
I0
I0
I0
tp6
a(I1
I1
I1
I1
I1
I1
I1
I0
tp7
a(I0
I0
I0
I0
I0
I1
I0
I0
tp8
a(I0
I0
I0
I0
I0
I0
I1
I0
tp9
a(I0
I0
I0
I1
I0
I0
I0
I0
tp10
a(I1
I1
I1
I1
I1
I0
I1
I1
tp11
a(I1
I0
I0
I0
I0
I0
I0
I0
tp12
a(I1
I1
I0
I1
I1
I1
I1
I1
tp13
a(I0
I0
I0
I0
I0
I0
I0
I1
tp14
a(I1
I1
I1
I1
I0
I1
I1
I1
tp15
a(I1
I1
I1
I0
I1
I1
I1
I1
tp16
a(I0
I1
I0
I0
I0
I0
I0
I0
tp17
atp18
Rp19
.