c__builtin__
set
p0
((lp1
(I0
I1
I0
I0
I0
I0
I0
I0
I0
I0
tp2
a(I1
I0
I0
I0
I0
I0
I0
I0
I0
I0
tp3
a(I0
I0
I0
I0
I0
I1
I0
I0
I0
I0
tp4
a(I0
I0
I0
I0
I0
I0
I1
I0
I0
I0
tp5
a(I0
I0
I0
I1
I0
I0
I0
I0
I0
I0
tp6
a(I0
I0
I1
I0
I0
I0
I0
I0
I0
I0
tp7
a(I0
I0
I0
I0
I0
I0
I0
I0
I0
I1
tp8
a(I0
I0
I0
I0
I0
I0
I0
I1
I0
I0
tp9
a(I0
I0
I0
I0
I0
I0
I0
I0
I1
I0
tp10
a(I0
I0
I0
I0
I1
I0
I0
I0
I0
I0
tp11
atp12
Rp13
.