c__builtin__
set
p0
((lp1
(I1
I1
I1
I1
I1
I1
I0
I1
I1
tp2
a(I0
I1
I0
I0
I0
I0
I0
I0
I0
tp3
a(I0
I0
I1
I0
I0
I0
I0
I0
I0
tp4
a(I1
I0
I0
I0
I0
I0
I0
I0
I0
tp5
a(I1
I1
I1
I1
I1
I1
I1
I1
I0
tp6
a(I0
I0
I0
I0
I1
I0
I0
I0
I0
tp7
a(I1
I1
I1
I0
I1
I1
I1
I1
I1
tp8
a(I0
I0
I0
I0
I0
I0
I0
I0
I1
tp9
a(I0
I0
I0
I0
I0
I1
I0
I0
I0
tp10
a(I1
I1
I1
I1
I1
I0
I1
I1
I1
tp11
a(I0
I0
I0
I1
I0
I0
I0
I0
I0
tp12
a(I0
I1
I1
I1
I1
I1
I1
I1
I1
tp13
a(I1
I0
I1
I1
I1
I1
I1
I1
I1
tp14
a(I0
I0
I0
I0
I0
I0
I1
I0
I0
tp15
a(I1
I1
I0
I1
I1
I1
I1
I1
I1
tp16
a(I1
I1
I1
I1
I1
I1
I1
I0
I1
tp17
a(I0
I0
I0
I0
I0
I0
I0
I1
I0
tp18
a(I1
I1
I1
I1
I0
I1
I1
I1
I1
tp19
atp20
Rp21
.