c__builtin__
set
p0
((lp1
(F0.0
F1.0
F1.0
tp2
a(F0.0
F0.83333333333333337
F1.0
tp3
a(F1.0
F0.0
F0.0
tp4
a(F1.0
F0.0
F1.0
tp5
a(F0.0
F1.0
F0.33333333333333331
tp6
a(F0.83333333333333337
F1.0
F0.0
tp7
a(F0.33333333333333331
F1.0
F0.0
tp8
a(F0.0
F0.66666666666666663
F1.0
tp9
a(F1.0
F0.0
F0.83333333333333337
tp10
a(F1.0
F0.0
F0.33333333333333331
tp11
a(F0.16666666666666666
F1.0
F0.0
tp12
a(F1.0
F0.16666666666666666
F0.0
tp13
a(F0.0
F1.0
F0.83333333333333337
tp14
a(F1.0
F0.0
F0.5
tp15
a(F0.66666666666666663
F1.0
F0.0
tp16
a(F0.66666666666666663
F0.0
F1.0
tp17
a(F1.0
F0.5
F0.0
tp18
a(F0.0
F0.0
F1.0
tp19
a(F0.0
F0.16666666666666666
F1.0
tp20
a(F0.5
F0.0
F1.0
tp21
a(F0.0
F0.33333333333333331
F1.0
tp22
a(F0.0
F1.0
F0.66666666666666663
tp23
a(F0.16666666666666666
F0.0
F1.0
tp24
a(F0.0
F1.0
F0.5
tp25
a(F1.0
F0.83333333333333337
F0.0
tp26
a(F1.0
F0.0
F0.16666666666666666
tp27
a(F0.0
F1.0
F0.0
tp28
a(F1.0
F0.33333333333333331
F0.0
tp29
a(F1.0
F1.0
F0.0
tp30
a(F1.0
F0.0
F0.66666666666666663
tp31
a(F0.0
F0.5
F1.0
tp32
a(F0.0
F1.0
F0.16666666666666666
tp33
a(F0.83333333333333337
F0.0
F1.0
tp34
a(F0.33333333333333331
F0.0
F1.0
tp35
a(F0.5
F1.0
F0.0
tp36
a(F1.0
F0.66666666666666663
F0.0
tp37
atp38
Rp39
.