c__builtin__
set
p0
((lp1
(F0.0
F1.0
F1.0
tp2
a(F1.0
F0.0
F0.66666666666666663
tp3
a(F1.0
F0.0
F0.33333333333333331
tp4
a(F0.33333333333333331
F1.0
F0.0
tp5
a(F0.0
F1.0
F0.66666666666666663
tp6
a(F1.0
F1.0
F0.0
tp7
a(F1.0
F0.0
F0.0
tp8
a(F0.0
F0.66666666666666663
F1.0
tp9
a(F0.0
F0.0
F1.0
tp10
a(F0.0
F0.33333333333333331
F1.0
tp11
a(F0.0
F1.0
F0.33333333333333331
tp12
a(F0.33333333333333331
F0.0
F1.0
tp13
a(F1.0
F0.66666666666666663
F0.0
tp14
a(F0.0
F1.0
F0.0
tp15
a(F1.0
F0.0
F1.0
tp16
a(F0.66666666666666663
F1.0
F0.0
tp17
a(F0.66666666666666663
F0.0
F1.0
tp18
a(F1.0
F0.33333333333333331
F0.0
tp19
atp20
Rp21
.